
blinker01.elf:     file format elf32-littlearm


Disassembly of section .text:

00008000 <_start>:
    8000:	e3a0d902 	mov	sp, #32768	; 0x8000
    8004:	eb000058 	bl	816c <notmain>

00008008 <hang>:
    8008:	eafffffe 	b	8008 <hang>

0000800c <PUT32>:
    800c:	e5801000 	str	r1, [r0]
    8010:	e12fff1e 	bx	lr

00008014 <GET32>:
    8014:	e5900000 	ldr	r0, [r0]
    8018:	e12fff1e 	bx	lr

0000801c <dummy>:
    801c:	e12fff1e 	bx	lr

00008020 <gpio_setup>:
    8020:	e3500036 	cmp	r0, #54	; 0x36
    8024:	93510007 	cmpls	r1, #7
    8028:	e92d4010 	push	{r4, lr}
    802c:	83a0e001 	movhi	lr, #1
    8030:	93a0e000 	movls	lr, #0
    8034:	8a000010 	bhi	807c <gpio_setup+0x5c>
    8038:	e59f3044 	ldr	r3, [pc, #68]	; 8084 <gpio_setup+0x64>
    803c:	e0832390 	umull	r2, r3, r0, r3
    8040:	e3a04007 	mov	r4, #7
    8044:	e1a031a3 	lsr	r3, r3, #3
    8048:	e1a02103 	lsl	r2, r3, #2
    804c:	e0833103 	add	r3, r3, r3, lsl #2
    8050:	e0403083 	sub	r3, r0, r3, lsl #1
    8054:	e1a0000e 	mov	r0, lr
    8058:	e2822202 	add	r2, r2, #536870912	; 0x20000000
    805c:	e2822602 	add	r2, r2, #2097152	; 0x200000
    8060:	e592c000 	ldr	ip, [r2]
    8064:	e0833083 	add	r3, r3, r3, lsl #1
    8068:	e1ccc314 	bic	ip, ip, r4, lsl r3
    806c:	e18c1311 	orr	r1, ip, r1, lsl r3
    8070:	e5821000 	str	r1, [r2]
    8074:	e8bd4010 	pop	{r4, lr}
    8078:	e12fff1e 	bx	lr
    807c:	e3e00000 	mvn	r0, #0
    8080:	eafffffb 	b	8074 <gpio_setup+0x54>
    8084:	cccccccd 	stclgt	12, cr12, [ip], {205}	; 0xcd

00008088 <init_DAC>:
    8088:	e3a00002 	mov	r0, #2
    808c:	e92d4030 	push	{r4, r5, lr}
    8090:	e1a03000 	mov	r3, r0
    8094:	e3a04007 	mov	r4, #7
    8098:	e3a0e001 	mov	lr, #1
    809c:	e59fc05c 	ldr	ip, [pc, #92]	; 8100 <init_DAC+0x78>
    80a0:	e59f505c 	ldr	r5, [pc, #92]	; 8104 <init_DAC+0x7c>
    80a4:	e2433001 	sub	r3, r3, #1
    80a8:	e79c3103 	ldr	r3, [ip, r3, lsl #2]
    80ac:	e3530036 	cmp	r3, #54	; 0x36
    80b0:	8a00000b 	bhi	80e4 <init_DAC+0x5c>
    80b4:	e0821395 	umull	r1, r2, r5, r3
    80b8:	e1a021a2 	lsr	r2, r2, #3
    80bc:	e1a01102 	lsl	r1, r2, #2
    80c0:	e2811202 	add	r1, r1, #536870912	; 0x20000000
    80c4:	e2811602 	add	r1, r1, #2097152	; 0x200000
    80c8:	e0822102 	add	r2, r2, r2, lsl #2
    80cc:	e0433082 	sub	r3, r3, r2, lsl #1
    80d0:	e5912000 	ldr	r2, [r1]
    80d4:	e0833083 	add	r3, r3, r3, lsl #1
    80d8:	e1c22314 	bic	r2, r2, r4, lsl r3
    80dc:	e182331e 	orr	r3, r2, lr, lsl r3
    80e0:	e5813000 	str	r3, [r1]
    80e4:	e3500001 	cmp	r0, #1
    80e8:	e3a03001 	mov	r3, #1
    80ec:	1a000001 	bne	80f8 <init_DAC+0x70>
    80f0:	e8bd4030 	pop	{r4, r5, lr}
    80f4:	e12fff1e 	bx	lr
    80f8:	e1a00003 	mov	r0, r3
    80fc:	eaffffe8 	b	80a4 <init_DAC+0x1c>
    8100:	000081f4 	strdeq	r8, [r0], -r4
    8104:	cccccccd 	stclgt	12, cr12, [ip], {205}	; 0xcd

00008108 <output_DAC>:
    8108:	e92d41f0 	push	{r4, r5, r6, r7, r8, lr}
    810c:	e3a07001 	mov	r7, #1
    8110:	e59f4048 	ldr	r4, [pc, #72]	; 8160 <output_DAC+0x58>
    8114:	e994000a 	ldmib	r4, {r1, r3}
    8118:	e59f6044 	ldr	r6, [pc, #68]	; 8164 <output_DAC+0x5c>
    811c:	e59f5044 	ldr	r5, [pc, #68]	; 8168 <output_DAC+0x60>
    8120:	e3130001 	tst	r3, #1
    8124:	e2411020 	sub	r1, r1, #32
    8128:	11a00006 	movne	r0, r6
    812c:	01a00005 	moveq	r0, r5
    8130:	e1a01117 	lsl	r1, r7, r1
    8134:	ebffffb4 	bl	800c <PUT32>
    8138:	e5941000 	ldr	r1, [r4]
    813c:	e5943008 	ldr	r3, [r4, #8]
    8140:	e2411020 	sub	r1, r1, #32
    8144:	e3130002 	tst	r3, #2
    8148:	11a00006 	movne	r0, r6
    814c:	01a00005 	moveq	r0, r5
    8150:	e1a01117 	lsl	r1, r7, r1
    8154:	ebffffac 	bl	800c <PUT32>
    8158:	e8bd41f0 	pop	{r4, r5, r6, r7, r8, lr}
    815c:	e12fff1e 	bx	lr
    8160:	000081f4 	strdeq	r8, [r0], -r4
    8164:	20200020 	eorcs	r0, r0, r0, lsr #32
    8168:	2020002c 	eorcs	r0, r0, ip, lsr #32

0000816c <notmain>:
    816c:	e92d41f0 	push	{r4, r5, r6, r7, r8, lr}
    8170:	ebffffc4 	bl	8088 <init_DAC>
    8174:	e3a018f9 	mov	r1, #16318464	; 0xf90000
    8178:	e59f0060 	ldr	r0, [pc, #96]	; 81e0 <notmain+0x74>
    817c:	ebffffa2 	bl	800c <PUT32>
    8180:	e59f105c 	ldr	r1, [pc, #92]	; 81e4 <notmain+0x78>
    8184:	e59f0054 	ldr	r0, [pc, #84]	; 81e0 <notmain+0x74>
    8188:	ebffff9f 	bl	800c <PUT32>
    818c:	e59f0054 	ldr	r0, [pc, #84]	; 81e8 <notmain+0x7c>
    8190:	ebffff9f 	bl	8014 <GET32>
    8194:	e3a07000 	mov	r7, #0
    8198:	e1a08000 	mov	r8, r0
    819c:	e59f6048 	ldr	r6, [pc, #72]	; 81ec <notmain+0x80>
    81a0:	e59f5040 	ldr	r5, [pc, #64]	; 81e8 <notmain+0x7c>
    81a4:	e59f4044 	ldr	r4, [pc, #68]	; 81f0 <notmain+0x84>
    81a8:	ebffffd6 	bl	8108 <output_DAC>
    81ac:	e5963008 	ldr	r3, [r6, #8]
    81b0:	e2833001 	add	r3, r3, #1
    81b4:	e3530003 	cmp	r3, #3
    81b8:	81a03007 	movhi	r3, r7
    81bc:	e5863008 	str	r3, [r6, #8]
    81c0:	e1a00005 	mov	r0, r5
    81c4:	ebffff92 	bl	8014 <GET32>
    81c8:	e0400008 	sub	r0, r0, r8
    81cc:	e1500004 	cmp	r0, r4
    81d0:	3afffffa 	bcc	81c0 <notmain+0x54>
    81d4:	e288883d 	add	r8, r8, #3997696	; 0x3d0000
    81d8:	e2888c09 	add	r8, r8, #2304	; 0x900
    81dc:	eafffff1 	b	81a8 <notmain+0x3c>
    81e0:	2000b408 	andcs	fp, r0, r8, lsl #8
    81e4:	00f90200 	rscseq	r0, r9, r0, lsl #4
    81e8:	2000b420 	andcs	fp, r0, r0, lsr #8
    81ec:	000081f4 	strdeq	r8, [r0], -r4
    81f0:	003d0900 	eorseq	r0, sp, r0, lsl #18

Disassembly of section .data:

000081f4 <dac>:
    81f4:	0000002f 	andeq	r0, r0, pc, lsr #32
    81f8:	00000023 	andeq	r0, r0, r3, lsr #32
    81fc:	00000000 	andeq	r0, r0, r0

Disassembly of section .ARM.attributes:

00000000 <.ARM.attributes>:
   0:	00002a41 	andeq	r2, r0, r1, asr #20
   4:	61656100 	cmnvs	r5, r0, lsl #2
   8:	01006962 	tsteq	r0, r2, ror #18
   c:	00000020 	andeq	r0, r0, r0, lsr #32
  10:	4d524105 	ldfmie	f4, [r2, #-20]	; 0xffffffec
  14:	54347620 	ldrtpl	r7, [r4], #-1568	; 0xfffff9e0
  18:	08020600 	stmdaeq	r2, {r9, sl}
  1c:	12010901 	andne	r0, r1, #16384	; 0x4000
  20:	15011404 	strne	r1, [r1, #-1028]	; 0xfffffbfc
  24:	18031701 	stmdane	r3, {r0, r8, r9, sl, ip}
  28:	Address 0x0000000000000028 is out of bounds.


Disassembly of section .comment:

00000000 <.comment>:
   0:	3a434347 	bcc	10d0d24 <dac+0x10c8b30>
   4:	35312820 	ldrcc	r2, [r1, #-2080]!	; 0xfffff7e0
   8:	322d393a 	eorcc	r3, sp, #950272	; 0xe8000
   c:	2d393130 	ldfcss	f3, [r9, #-192]!	; 0xffffff40
  10:	302d3471 	eorcc	r3, sp, r1, ror r4
  14:	6e756275 	mrcvs	2, 3, r6, cr5, cr5, {3}
  18:	29317574 	ldmdbcs	r1!, {r2, r4, r5, r6, r8, sl, ip, sp, lr}
  1c:	322e3920 	eorcc	r3, lr, #32, 18	; 0x80000
  20:	3220312e 	eorcc	r3, r0, #-2147483637	; 0x8000000b
  24:	31393130 	teqcc	r9, r0, lsr r1
  28:	20353230 	eorscs	r3, r5, r0, lsr r2
  2c:	6c657228 	sfmvs	f7, 2, [r5], #-160	; 0xffffff60
  30:	65736165 	ldrbvs	r6, [r3, #-357]!	; 0xfffffe9b
  34:	415b2029 	cmpmi	fp, r9, lsr #32
  38:	612f4d52 			; <UNDEFINED> instruction: 0x612f4d52
  3c:	392d6d72 	pushcc	{r1, r4, r5, r6, r8, sl, fp, sp, lr}
  40:	6172622d 	cmnvs	r2, sp, lsr #4
  44:	2068636e 	rsbcs	r6, r8, lr, ror #6
  48:	69766572 	ldmdbvs	r6!, {r1, r4, r5, r6, r8, sl, sp, lr}^
  4c:	6e6f6973 			; <UNDEFINED> instruction: 0x6e6f6973
  50:	37373220 	ldrcc	r3, [r7, -r0, lsr #4]!
  54:	5d393935 			; <UNDEFINED> instruction: 0x5d393935
	...
