
blinker01.elf:     file format elf32-littlearm


Disassembly of section .text:

00008000 <_start>:
    8000:	e3a0d902 	mov	sp, #32768	; 0x8000
    8004:	eb000011 	bl	8050 <notmain>

00008008 <hang>:
    8008:	eafffffe 	b	8008 <hang>

0000800c <PUT32>:
    800c:	e5801000 	str	r1, [r0]
    8010:	e12fff1e 	bx	lr

00008014 <GET32>:
    8014:	e5900000 	ldr	r0, [r0]
    8018:	e12fff1e 	bx	lr

0000801c <dummy>:
    801c:	e12fff1e 	bx	lr

00008020 <outputDAC>:
    8020:	e3a01001 	mov	r1, #1
    8024:	e59f301c 	ldr	r3, [pc, #28]	; 8048 <outputDAC+0x28>
    8028:	e92d4010 	push	{r4, lr}
    802c:	e5933004 	ldr	r3, [r3, #4]
    8030:	e2433020 	sub	r3, r3, #32
    8034:	e59f0010 	ldr	r0, [pc, #16]	; 804c <outputDAC+0x2c>
    8038:	e1a01311 	lsl	r1, r1, r3
    803c:	ebfffff2 	bl	800c <PUT32>
    8040:	e8bd4010 	pop	{r4, lr}
    8044:	e12fff1e 	bx	lr
    8048:	00008110 	andeq	r8, r0, r0, lsl r1
    804c:	2020001c 	eorcs	r0, r0, ip, lsl r0

00008050 <notmain>:
    8050:	e92d41f0 	push	{r4, r5, r6, r7, r8, lr}
    8054:	e59f0094 	ldr	r0, [pc, #148]	; 80f0 <notmain+0xa0>
    8058:	ebffffed 	bl	8014 <GET32>
    805c:	e3c0160e 	bic	r1, r0, #14680064	; 0xe00000
    8060:	e3811602 	orr	r1, r1, #2097152	; 0x200000
    8064:	e59f0084 	ldr	r0, [pc, #132]	; 80f0 <notmain+0xa0>
    8068:	ebffffe7 	bl	800c <PUT32>
    806c:	e59f0080 	ldr	r0, [pc, #128]	; 80f4 <notmain+0xa4>
    8070:	ebffffe7 	bl	8014 <GET32>
    8074:	e3c0190e 	bic	r1, r0, #229376	; 0x38000
    8078:	e3811902 	orr	r1, r1, #32768	; 0x8000
    807c:	e59f0070 	ldr	r0, [pc, #112]	; 80f4 <notmain+0xa4>
    8080:	ebffffe1 	bl	800c <PUT32>
    8084:	e3a018f9 	mov	r1, #16318464	; 0xf90000
    8088:	e59f0068 	ldr	r0, [pc, #104]	; 80f8 <notmain+0xa8>
    808c:	ebffffde 	bl	800c <PUT32>
    8090:	e59f1064 	ldr	r1, [pc, #100]	; 80fc <notmain+0xac>
    8094:	e59f005c 	ldr	r0, [pc, #92]	; 80f8 <notmain+0xa8>
    8098:	ebffffdb 	bl	800c <PUT32>
    809c:	e59f005c 	ldr	r0, [pc, #92]	; 8100 <notmain+0xb0>
    80a0:	ebffffdb 	bl	8014 <GET32>
    80a4:	e1a04000 	mov	r4, r0
    80a8:	e59f8054 	ldr	r8, [pc, #84]	; 8104 <notmain+0xb4>
    80ac:	e59f7054 	ldr	r7, [pc, #84]	; 8108 <notmain+0xb8>
    80b0:	e59f6048 	ldr	r6, [pc, #72]	; 8100 <notmain+0xb0>
    80b4:	e59f5050 	ldr	r5, [pc, #80]	; 810c <notmain+0xbc>
    80b8:	e3a01001 	mov	r1, #1
    80bc:	e5983004 	ldr	r3, [r8, #4]
    80c0:	e2433020 	sub	r3, r3, #32
    80c4:	e1a00007 	mov	r0, r7
    80c8:	e1a01311 	lsl	r1, r1, r3
    80cc:	ebffffce 	bl	800c <PUT32>
    80d0:	e1a00006 	mov	r0, r6
    80d4:	ebffffce 	bl	8014 <GET32>
    80d8:	e0400004 	sub	r0, r0, r4
    80dc:	e1500005 	cmp	r0, r5
    80e0:	3afffffa 	bcc	80d0 <notmain+0x80>
    80e4:	e284483d 	add	r4, r4, #3997696	; 0x3d0000
    80e8:	e2844c09 	add	r4, r4, #2304	; 0x900
    80ec:	eafffff1 	b	80b8 <notmain+0x68>
    80f0:	20200010 	eorcs	r0, r0, r0, lsl r0
    80f4:	2020000c 	eorcs	r0, r0, ip
    80f8:	2000b408 	andcs	fp, r0, r8, lsl #8
    80fc:	00f90200 	rscseq	r0, r9, r0, lsl #4
    8100:	2000b420 	andcs	fp, r0, r0, lsr #8
    8104:	00008110 	andeq	r8, r0, r0, lsl r1
    8108:	2020001c 	eorcs	r0, r0, ip, lsl r0
    810c:	003d0900 	eorseq	r0, sp, r0, lsl #18

Disassembly of section .data:

00008110 <dac>:
    8110:	0000002f 	andeq	r0, r0, pc, lsr #32
    8114:	00000023 	andeq	r0, r0, r3, lsr #32
    8118:	00000001 	andeq	r0, r0, r1

Disassembly of section .ARM.attributes:

00000000 <.ARM.attributes>:
   0:	00002a41 	andeq	r2, r0, r1, asr #20
   4:	61656100 	cmnvs	r5, r0, lsl #2
   8:	01006962 	tsteq	r0, r2, ror #18
   c:	00000020 	andeq	r0, r0, r0, lsr #32
  10:	4d524105 	ldfmie	f4, [r2, #-20]	; 0xffffffec
  14:	54347620 	ldrtpl	r7, [r4], #-1568	; 0xfffff9e0
  18:	08020600 	stmdaeq	r2, {r9, sl}
  1c:	12010901 	andne	r0, r1, #16384	; 0x4000
  20:	15011404 	strne	r1, [r1, #-1028]	; 0xfffffbfc
  24:	18031701 	stmdane	r3, {r0, r8, r9, sl, ip}
  28:	Address 0x0000000000000028 is out of bounds.


Disassembly of section .comment:

00000000 <.comment>:
   0:	3a434347 	bcc	10d0d24 <dac+0x10c8c14>
   4:	35312820 	ldrcc	r2, [r1, #-2080]!	; 0xfffff7e0
   8:	322d393a 	eorcc	r3, sp, #950272	; 0xe8000
   c:	2d393130 	ldfcss	f3, [r9, #-192]!	; 0xffffff40
  10:	302d3471 	eorcc	r3, sp, r1, ror r4
  14:	6e756275 	mrcvs	2, 3, r6, cr5, cr5, {3}
  18:	29317574 	ldmdbcs	r1!, {r2, r4, r5, r6, r8, sl, ip, sp, lr}
  1c:	322e3920 	eorcc	r3, lr, #32, 18	; 0x80000
  20:	3220312e 	eorcc	r3, r0, #-2147483637	; 0x8000000b
  24:	31393130 	teqcc	r9, r0, lsr r1
  28:	20353230 	eorscs	r3, r5, r0, lsr r2
  2c:	6c657228 	sfmvs	f7, 2, [r5], #-160	; 0xffffff60
  30:	65736165 	ldrbvs	r6, [r3, #-357]!	; 0xfffffe9b
  34:	415b2029 	cmpmi	fp, r9, lsr #32
  38:	612f4d52 			; <UNDEFINED> instruction: 0x612f4d52
  3c:	392d6d72 	pushcc	{r1, r4, r5, r6, r8, sl, fp, sp, lr}
  40:	6172622d 	cmnvs	r2, sp, lsr #4
  44:	2068636e 	rsbcs	r6, r8, lr, ror #6
  48:	69766572 	ldmdbvs	r6!, {r1, r4, r5, r6, r8, sl, sp, lr}^
  4c:	6e6f6973 			; <UNDEFINED> instruction: 0x6e6f6973
  50:	37373220 	ldrcc	r3, [r7, -r0, lsr #4]!
  54:	5d393935 			; <UNDEFINED> instruction: 0x5d393935
	...
